; ModuleID = 'source-C-CXX/56/801.c'
source_filename = "source-C-CXX/56/801.c"
target datalayout = "e-m:e-p270:32:32-p271:32:32-p272:64:64-i64:64-f80:128-n8:16:32:64-S128"
target triple = "x86_64-pc-linux-gnu"

@.str = private unnamed_addr constant [3 x i8] c"%d\00", align 1
@.str.1 = private unnamed_addr constant [3 x i8] c"%s\00", align 1

; Function Attrs: nofree nounwind sspstrong uwtable
define dso_local i32 @main() local_unnamed_addr #0 {
  %1 = alloca i32, align 4
  %2 = alloca [33 x i8], align 16
  %3 = bitcast i32* %1 to i8*
  call void @llvm.lifetime.start.p0i8(i64 4, i8* nonnull %3) #5
  %4 = getelementptr inbounds [33 x i8], [33 x i8]* %2, i64 0, i64 0
  call void @llvm.lifetime.start.p0i8(i64 33, i8* nonnull %4) #5
  %5 = call i32 (i8*, ...) @__isoc99_scanf(i8* getelementptr inbounds ([3 x i8], [3 x i8]* @.str, i64 0, i64 0), i32* nonnull %1)
  %6 = load i32, i32* %1, align 4, !tbaa !5
  %7 = icmp sgt i32 %6, 0
  br i1 %7, label %8, label %58

8:                                                ; preds = %0, %53
  %9 = phi i32 [ %55, %53 ], [ 0, %0 ]
  %10 = call i32 (i8*, ...) @__isoc99_scanf(i8* getelementptr inbounds ([3 x i8], [3 x i8]* @.str.1, i64 0, i64 0), i8* nonnull %4)
  %11 = call i64 @strlen(i8* noundef nonnull %4) #6
  %12 = trunc i64 %11 to i32
  %13 = icmp slt i32 %12, 0
  br i1 %13, label %53, label %14

14:                                               ; preds = %8
  %15 = add i64 %11, 1
  %16 = and i64 %15, 4294967295
  br label %17

17:                                               ; preds = %14, %50
  %18 = phi i64 [ 0, %14 ], [ %51, %50 ]
  %19 = getelementptr inbounds [33 x i8], [33 x i8]* %2, i64 0, i64 %18
  %20 = load i8, i8* %19, align 1, !tbaa !9
  %21 = icmp eq i8 %20, 0
  br i1 %21, label %22, label %50

22:                                               ; preds = %17
  %23 = add nsw i64 %18, -1
  %24 = getelementptr inbounds [33 x i8], [33 x i8]* %2, i64 0, i64 %23
  %25 = load i8, i8* %24, align 1, !tbaa !9
  switch i8 %25, label %50 [
    i8 114, label %26
    i8 121, label %31
    i8 103, label %36
  ]

26:                                               ; preds = %22
  %27 = add nsw i64 %18, -2
  %28 = getelementptr inbounds [33 x i8], [33 x i8]* %2, i64 0, i64 %27
  %29 = load i8, i8* %28, align 1, !tbaa !9
  %30 = icmp eq i8 %29, 101
  br i1 %30, label %46, label %50

31:                                               ; preds = %22
  %32 = add nsw i64 %18, -2
  %33 = getelementptr inbounds [33 x i8], [33 x i8]* %2, i64 0, i64 %32
  %34 = load i8, i8* %33, align 1, !tbaa !9
  %35 = icmp eq i8 %34, 108
  br i1 %35, label %46, label %50

36:                                               ; preds = %22
  %37 = add nsw i64 %18, -2
  %38 = getelementptr inbounds [33 x i8], [33 x i8]* %2, i64 0, i64 %37
  %39 = load i8, i8* %38, align 1, !tbaa !9
  %40 = icmp eq i8 %39, 110
  br i1 %40, label %41, label %50

41:                                               ; preds = %36
  %42 = add nsw i64 %18, -3
  %43 = getelementptr inbounds [33 x i8], [33 x i8]* %2, i64 0, i64 %42
  %44 = load i8, i8* %43, align 1, !tbaa !9
  %45 = icmp eq i8 %44, 105
  br i1 %45, label %48, label %50

46:                                               ; preds = %31, %26
  %47 = phi i8* [ %28, %26 ], [ %33, %31 ]
  store i8 0, i8* %24, align 1, !tbaa !9
  br label %48

48:                                               ; preds = %46, %41
  %49 = phi i8* [ %43, %41 ], [ %47, %46 ]
  store i8 0, i8* %49, align 1, !tbaa !9
  br label %50

50:                                               ; preds = %48, %22, %26, %31, %17, %36, %41
  %51 = add nuw nsw i64 %18, 1
  %52 = icmp eq i64 %51, %16
  br i1 %52, label %53, label %17, !llvm.loop !10

53:                                               ; preds = %50, %8
  %54 = call i32 @puts(i8* nonnull %4)
  %55 = add nuw nsw i32 %9, 1
  %56 = load i32, i32* %1, align 4, !tbaa !5
  %57 = icmp slt i32 %55, %56
  br i1 %57, label %8, label %58, !llvm.loop !12

58:                                               ; preds = %53, %0
  call void @llvm.lifetime.end.p0i8(i64 33, i8* nonnull %4) #5
  call void @llvm.lifetime.end.p0i8(i64 4, i8* nonnull %3) #5
  ret i32 0
}

; Function Attrs: argmemonly mustprogress nofree nosync nounwind willreturn
declare void @llvm.lifetime.start.p0i8(i64 immarg, i8* nocapture) #1

; Function Attrs: nofree nounwind
declare noundef i32 @__isoc99_scanf(i8* nocapture noundef readonly, ...) local_unnamed_addr #2

; Function Attrs: argmemonly mustprogress nofree nounwind readonly willreturn
declare i64 @strlen(i8* nocapture) local_unnamed_addr #3

; Function Attrs: argmemonly mustprogress nofree nosync nounwind willreturn
declare void @llvm.lifetime.end.p0i8(i64 immarg, i8* nocapture) #1

; Function Attrs: nofree nounwind
declare noundef i32 @puts(i8* nocapture noundef readonly) local_unnamed_addr #4


!llvm.module.flags = !{!0, !1, !2, !3}
!llvm.ident = !{!4}

!0 = !{i32 1, !"wchar_size", i32 4}
!1 = !{i32 7, !"PIC Level", i32 2}
!2 = !{i32 7, !"PIE Level", i32 2}
!3 = !{i32 7, !"uwtable", i32 1}
!4 = !{!"clang version 13.0.0"}
!5 = !{!6, !6, i64 0}
!6 = !{!"int", !7, i64 0}
!7 = !{!"omnipotent char", !8, i64 0}
!8 = !{!"Simple C/C++ TBAA"}
!9 = !{!7, !7, i64 0}
!10 = distinct !{!10, !11}
!11 = !{!"llvm.loop.mustprogress"}
!12 = distinct !{!12, !11}
